target datalayout = "e-m:e-p270:32:32-p271:32:32-p272:64:64-i64:64-i128:128-f80:128-n8:16:32:64-S128"
target triple = "x86_64-pc-linux-gnu"

%"class.opencc::UTF8StringSliceBase" = type <{ ptr, i8, i8, [6 x i8] }>
%"struct.std::__detail::_Hash_node_base" = type { ptr }
%"struct.std::__detail::_Prime_rehash_policy" = type { float, i64 }
%"class.std::unordered_map.28" = type { %"class.std::_Hashtable.29" }
%"class.std::_Hashtable.29" = type { ptr, i64, %"struct.std::__detail::_Hash_node_base", i64, %"struct.std::__detail::_Prime_rehash_policy", ptr }
%"struct.std::__detail::_Node_const_iterator" = type { %"struct.std::__detail::_Node_iterator_base" }
%"struct.std::__detail::_Node_iterator_base" = type { ptr }
%"struct.std::pair.42" = type { %"class.opencc::UTF8StringSliceBase", i64 }
%"struct.std::__detail::_Hash_node_value_base.101" = type { %"struct.__gnu_cxx::__aligned_buffer.102" }
%"struct.__gnu_cxx::__aligned_buffer.102" = type { %"union.std::aligned_storage<24, 8>::type" }
%"union.std::aligned_storage<24, 8>::type" = type { [24 x i8] }

; Function Attrs: mustprogress nounwind uwtable
define linkonce_odr noundef ptr @_ZN9__gnu_cxx16__aligned_bufferISt4pairIKN6opencc19UTF8StringSliceBaseIhEEmEE7_M_addrEv(ptr noundef nonnull align 8 dereferenceable(24) %0) #5 comdat align 2 {
  %2 = alloca ptr, align 8
  store ptr %0, ptr %2, align 8
  %3 = load ptr, ptr %2, align 8
  %4 = getelementptr inbounds %"struct.__gnu_cxx::__aligned_buffer.102", ptr %3, i32 0, i32 0
  ret ptr %4
}

; Function Attrs: mustprogress nounwind uwtable
define linkonce_odr noundef ptr @_ZN9__gnu_cxx16__aligned_bufferISt4pairIKN6opencc19UTF8StringSliceBaseIhEEmEE6_M_ptrEv(ptr noundef nonnull align 8 dereferenceable(24) %0) #5 comdat align 2 {
  %2 = alloca ptr, align 8
  store ptr %0, ptr %2, align 8
  %3 = load ptr, ptr %2, align 8
  %4 = call noundef ptr @_ZN9__gnu_cxx16__aligned_bufferISt4pairIKN6opencc19UTF8StringSliceBaseIhEEmEE7_M_addrEv(ptr noundef nonnull align 8 dereferenceable(24) %3) #3
  ret ptr %4
}

; Function Attrs: mustprogress nounwind uwtable
define linkonce_odr void @_ZNSt8__detail19_Node_iterator_baseISt4pairIKN6opencc19UTF8StringSliceBaseIhEEmELb1EEC2EPNS_10_Hash_nodeIS6_Lb1EEE(ptr noundef nonnull align 8 dereferenceable(8) %0, ptr noundef %1) unnamed_addr #5 comdat align 2 {
  %3 = alloca ptr, align 8
  %4 = alloca ptr, align 8
  store ptr %0, ptr %3, align 8
  store ptr %1, ptr %4, align 8
  %5 = load ptr, ptr %3, align 8
  %6 = getelementptr inbounds %"struct.std::__detail::_Node_iterator_base", ptr %5, i32 0, i32 0
  %7 = load ptr, ptr %4, align 8
  store ptr %7, ptr %6, align 8
  ret void
}

; Function Attrs: mustprogress nounwind uwtable
define linkonce_odr noundef ptr @_ZNKSt8__detail10_Hash_nodeISt4pairIKN6opencc19UTF8StringSliceBaseIhEEmELb1EE7_M_nextEv(ptr noundef nonnull align 8 dereferenceable(40) %0) #5 comdat align 2 {
  %2 = alloca ptr, align 8
  store ptr %0, ptr %2, align 8
  %3 = load ptr, ptr %2, align 8
  %4 = getelementptr inbounds %"struct.std::__detail::_Hash_node_base", ptr %3, i32 0, i32 0
  %5 = load ptr, ptr %4, align 8
  ret ptr %5
}

; Function Attrs: mustprogress nounwind uwtable
define linkonce_odr noundef ptr @_ZNSt8__detail21_Hash_node_value_baseISt4pairIKN6opencc19UTF8StringSliceBaseIhEEmEE9_M_valptrEv(ptr noundef nonnull align 8 dereferenceable(24) %0) #5 comdat align 2 {
  %2 = alloca ptr, align 8
  store ptr %0, ptr %2, align 8
  %3 = load ptr, ptr %2, align 8
  %4 = getelementptr inbounds %"struct.std::__detail::_Hash_node_value_base.101", ptr %3, i32 0, i32 0
  %5 = call noundef ptr @_ZN9__gnu_cxx16__aligned_bufferISt4pairIKN6opencc19UTF8StringSliceBaseIhEEmEE6_M_ptrEv(ptr noundef nonnull align 8 dereferenceable(24) %4) #3
  ret ptr %5
}

; Function Attrs: mustprogress nounwind uwtable
define linkonce_odr void @_ZNSt8__detail20_Node_const_iteratorISt4pairIKN6opencc19UTF8StringSliceBaseIhEEmELb0ELb1EEC2EPNS_10_Hash_nodeIS6_Lb1EEE(ptr noundef nonnull align 8 dereferenceable(8) %0, ptr noundef %1) unnamed_addr #5 comdat align 2 {
  %3 = alloca ptr, align 8
  %4 = alloca ptr, align 8
  store ptr %0, ptr %3, align 8
  store ptr %1, ptr %4, align 8
  %5 = load ptr, ptr %3, align 8
  %6 = load ptr, ptr %4, align 8
  call void @_ZNSt8__detail19_Node_iterator_baseISt4pairIKN6opencc19UTF8StringSliceBaseIhEEmELb1EEC2EPNS_10_Hash_nodeIS6_Lb1EEE(ptr noundef nonnull align 8 dereferenceable(8) %5, ptr noundef %6) #3
  ret void
}

; Function Attrs: mustprogress nounwind uwtable
define linkonce_odr noundef ptr @_ZNKSt10_HashtableIN6opencc19UTF8StringSliceBaseIhEESt4pairIKS2_mESaIS5_ENSt8__detail10_Select1stESt8equal_toIS2_ENS2_6HasherENS7_18_Mod_range_hashingENS7_20_Default_ranged_hashENS7_20_Prime_rehash_policyENS7_17_Hashtable_traitsILb1ELb0ELb1EEEE8_M_beginEv(ptr noundef nonnull align 8 dereferenceable(56) %0) #5 comdat align 2 {
  %2 = alloca ptr, align 8
  store ptr %0, ptr %2, align 8
  %3 = load ptr, ptr %2, align 8
  %4 = getelementptr inbounds %"class.std::_Hashtable.29", ptr %3, i32 0, i32 2
  %5 = getelementptr inbounds %"struct.std::__detail::_Hash_node_base", ptr %4, i32 0, i32 0
  %6 = load ptr, ptr %5, align 8
  ret ptr %6
}

; Function Attrs: mustprogress nounwind uwtable
define linkonce_odr void @_ZNSt8__detail19_Node_iterator_baseISt4pairIKN6opencc19UTF8StringSliceBaseIhEEmELb1EE7_M_incrEv(ptr noundef nonnull align 8 dereferenceable(8) %0) #5 comdat align 2 {
  %2 = alloca ptr, align 8
  store ptr %0, ptr %2, align 8
  %3 = load ptr, ptr %2, align 8
  %4 = getelementptr inbounds %"struct.std::__detail::_Node_iterator_base", ptr %3, i32 0, i32 0
  %5 = load ptr, ptr %4, align 8
  %6 = call noundef ptr @_ZNKSt8__detail10_Hash_nodeISt4pairIKN6opencc19UTF8StringSliceBaseIhEEmELb1EE7_M_nextEv(ptr noundef nonnull align 8 dereferenceable(40) %5) #3
  %7 = getelementptr inbounds %"struct.std::__detail::_Node_iterator_base", ptr %3, i32 0, i32 0
  store ptr %6, ptr %7, align 8
  ret void
}

; Function Attrs: mustprogress nounwind uwtable
define linkonce_odr noundef nonnull align 8 dereferenceable(24) ptr @_ZNSt8__detail21_Hash_node_value_baseISt4pairIKN6opencc19UTF8StringSliceBaseIhEEmEE4_M_vEv(ptr noundef nonnull align 8 dereferenceable(24) %0) #5 comdat align 2 {
  %2 = alloca ptr, align 8
  store ptr %0, ptr %2, align 8
  %3 = load ptr, ptr %2, align 8
  %4 = call noundef ptr @_ZNSt8__detail21_Hash_node_value_baseISt4pairIKN6opencc19UTF8StringSliceBaseIhEEmEE9_M_valptrEv(ptr noundef nonnull align 8 dereferenceable(24) %3) #3
  ret ptr %4
}

; Function Attrs: mustprogress nounwind uwtable
define linkonce_odr ptr @_ZNKSt10_HashtableIN6opencc19UTF8StringSliceBaseIhEESt4pairIKS2_mESaIS5_ENSt8__detail10_Select1stESt8equal_toIS2_ENS2_6HasherENS7_18_Mod_range_hashingENS7_20_Default_ranged_hashENS7_20_Prime_rehash_policyENS7_17_Hashtable_traitsILb1ELb0ELb1EEEE3endEv(ptr noundef nonnull align 8 dereferenceable(56) %0) #5 comdat align 2 {
  %2 = alloca %"struct.std::__detail::_Node_const_iterator", align 8
  %3 = alloca ptr, align 8
  store ptr %0, ptr %3, align 8
  call void @_ZNSt8__detail20_Node_const_iteratorISt4pairIKN6opencc19UTF8StringSliceBaseIhEEmELb0ELb1EEC2EPNS_10_Hash_nodeIS6_Lb1EEE(ptr noundef nonnull align 8 dereferenceable(8) %2, ptr noundef null) #3
  %4 = getelementptr inbounds %"struct.std::__detail::_Node_const_iterator", ptr %2, i32 0, i32 0
  %5 = getelementptr inbounds %"struct.std::__detail::_Node_iterator_base", ptr %4, i32 0, i32 0
  %6 = load ptr, ptr %5, align 8
  ret ptr %6
}

; Function Attrs: mustprogress nounwind uwtable
define linkonce_odr ptr @_ZNKSt10_HashtableIN6opencc19UTF8StringSliceBaseIhEESt4pairIKS2_mESaIS5_ENSt8__detail10_Select1stESt8equal_toIS2_ENS2_6HasherENS7_18_Mod_range_hashingENS7_20_Default_ranged_hashENS7_20_Prime_rehash_policyENS7_17_Hashtable_traitsILb1ELb0ELb1EEEE5beginEv(ptr noundef nonnull align 8 dereferenceable(56) %0) #5 comdat align 2 {
  %2 = alloca %"struct.std::__detail::_Node_const_iterator", align 8
  %3 = alloca ptr, align 8
  store ptr %0, ptr %3, align 8
  %4 = load ptr, ptr %3, align 8
  %5 = call noundef ptr @_ZNKSt10_HashtableIN6opencc19UTF8StringSliceBaseIhEESt4pairIKS2_mESaIS5_ENSt8__detail10_Select1stESt8equal_toIS2_ENS2_6HasherENS7_18_Mod_range_hashingENS7_20_Default_ranged_hashENS7_20_Prime_rehash_policyENS7_17_Hashtable_traitsILb1ELb0ELb1EEEE8_M_beginEv(ptr noundef nonnull align 8 dereferenceable(56) %4)
  call void @_ZNSt8__detail20_Node_const_iteratorISt4pairIKN6opencc19UTF8StringSliceBaseIhEEmELb0ELb1EEC2EPNS_10_Hash_nodeIS6_Lb1EEE(ptr noundef nonnull align 8 dereferenceable(8) %2, ptr noundef %5) #3
  %6 = getelementptr inbounds %"struct.std::__detail::_Node_const_iterator", ptr %2, i32 0, i32 0
  %7 = getelementptr inbounds %"struct.std::__detail::_Node_iterator_base", ptr %6, i32 0, i32 0
  %8 = load ptr, ptr %7, align 8
  ret ptr %8
}

; Function Attrs: mustprogress nounwind uwtable
define linkonce_odr noundef nonnull align 8 dereferenceable(8) ptr @_ZNSt8__detail20_Node_const_iteratorISt4pairIKN6opencc19UTF8StringSliceBaseIhEEmELb0ELb1EEppEv(ptr noundef nonnull align 8 dereferenceable(8) %0) #5 comdat align 2 {
  %2 = alloca ptr, align 8
  store ptr %0, ptr %2, align 8
  %3 = load ptr, ptr %2, align 8
  call void @_ZNSt8__detail19_Node_iterator_baseISt4pairIKN6opencc19UTF8StringSliceBaseIhEEmELb1EE7_M_incrEv(ptr noundef nonnull align 8 dereferenceable(8) %3) #3
  ret ptr %3
}

; Function Attrs: mustprogress nounwind uwtable
define linkonce_odr noundef nonnull align 8 dereferenceable(24) ptr @_ZNKSt8__detail20_Node_const_iteratorISt4pairIKN6opencc19UTF8StringSliceBaseIhEEmELb0ELb1EEdeEv(ptr noundef nonnull align 8 dereferenceable(8) %0) #5 comdat align 2 {
  %2 = alloca ptr, align 8
  store ptr %0, ptr %2, align 8
  %3 = load ptr, ptr %2, align 8
  %4 = getelementptr inbounds %"struct.std::__detail::_Node_iterator_base", ptr %3, i32 0, i32 0
  %5 = load ptr, ptr %4, align 8
  %6 = getelementptr inbounds i8, ptr %5, i64 8
  %7 = call noundef nonnull align 8 dereferenceable(24) ptr @_ZNSt8__detail21_Hash_node_value_baseISt4pairIKN6opencc19UTF8StringSliceBaseIhEEmEE4_M_vEv(ptr noundef nonnull align 8 dereferenceable(24) %6) #3
  ret ptr %7
}

; Function Attrs: mustprogress nounwind uwtable
define linkonce_odr noundef zeroext i1 @_ZNSt8__detailneERKNS_19_Node_iterator_baseISt4pairIKN6opencc19UTF8StringSliceBaseIhEEmELb1EEES9_(ptr noundef nonnull align 8 dereferenceable(8) %0, ptr noundef nonnull align 8 dereferenceable(8) %1) #5 comdat {
  %3 = alloca ptr, align 8
  %4 = alloca ptr, align 8
  store ptr %0, ptr %3, align 8
  store ptr %1, ptr %4, align 8
  %5 = load ptr, ptr %3, align 8
  %6 = getelementptr inbounds %"struct.std::__detail::_Node_iterator_base", ptr %5, i32 0, i32 0
  %7 = load ptr, ptr %6, align 8
  %8 = load ptr, ptr %4, align 8
  %9 = getelementptr inbounds %"struct.std::__detail::_Node_iterator_base", ptr %8, i32 0, i32 0
  %10 = load ptr, ptr %9, align 8
  %11 = icmp ne ptr %7, %10
  ret i1 %11
}

; Function Attrs: mustprogress nounwind uwtable
define linkonce_odr ptr @_ZNKSt13unordered_mapIN6opencc19UTF8StringSliceBaseIhEEmNS2_6HasherESt8equal_toIS2_ESaISt4pairIKS2_mEEE3endEv(ptr noundef nonnull align 8 dereferenceable(56) %0) #5 comdat align 2 {
  %2 = alloca %"struct.std::__detail::_Node_const_iterator", align 8
  %3 = alloca ptr, align 8
  store ptr %0, ptr %3, align 8
  %4 = load ptr, ptr %3, align 8
  %5 = getelementptr inbounds %"class.std::unordered_map.28", ptr %4, i32 0, i32 0
  %6 = call ptr @_ZNKSt10_HashtableIN6opencc19UTF8StringSliceBaseIhEESt4pairIKS2_mESaIS5_ENSt8__detail10_Select1stESt8equal_toIS2_ENS2_6HasherENS7_18_Mod_range_hashingENS7_20_Default_ranged_hashENS7_20_Prime_rehash_policyENS7_17_Hashtable_traitsILb1ELb0ELb1EEEE3endEv(ptr noundef nonnull align 8 dereferenceable(56) %5) #3
  %7 = getelementptr inbounds %"struct.std::__detail::_Node_const_iterator", ptr %2, i32 0, i32 0
  %8 = getelementptr inbounds %"struct.std::__detail::_Node_iterator_base", ptr %7, i32 0, i32 0
  store ptr %6, ptr %8, align 8
  %9 = getelementptr inbounds %"struct.std::__detail::_Node_const_iterator", ptr %2, i32 0, i32 0
  %10 = getelementptr inbounds %"struct.std::__detail::_Node_iterator_base", ptr %9, i32 0, i32 0
  %11 = load ptr, ptr %10, align 8
  ret ptr %11
}

; Function Attrs: mustprogress nounwind uwtable
define linkonce_odr ptr @_ZNKSt13unordered_mapIN6opencc19UTF8StringSliceBaseIhEEmNS2_6HasherESt8equal_toIS2_ESaISt4pairIKS2_mEEE5beginEv(ptr noundef nonnull align 8 dereferenceable(56) %0) #5 comdat align 2 {
  %2 = alloca %"struct.std::__detail::_Node_const_iterator", align 8
  %3 = alloca ptr, align 8
  store ptr %0, ptr %3, align 8
  %4 = load ptr, ptr %3, align 8
  %5 = getelementptr inbounds %"class.std::unordered_map.28", ptr %4, i32 0, i32 0
  %6 = call ptr @_ZNKSt10_HashtableIN6opencc19UTF8StringSliceBaseIhEESt4pairIKS2_mESaIS5_ENSt8__detail10_Select1stESt8equal_toIS2_ENS2_6HasherENS7_18_Mod_range_hashingENS7_20_Default_ranged_hashENS7_20_Prime_rehash_policyENS7_17_Hashtable_traitsILb1ELb0ELb1EEEE5beginEv(ptr noundef nonnull align 8 dereferenceable(56) %5) #3
  %7 = getelementptr inbounds %"struct.std::__detail::_Node_const_iterator", ptr %2, i32 0, i32 0
  %8 = getelementptr inbounds %"struct.std::__detail::_Node_iterator_base", ptr %7, i32 0, i32 0
  store ptr %6, ptr %8, align 8
  %9 = getelementptr inbounds %"struct.std::__detail::_Node_const_iterator", ptr %2, i32 0, i32 0
  %10 = getelementptr inbounds %"struct.std::__detail::_Node_iterator_base", ptr %9, i32 0, i32 0
  %11 = load ptr, ptr %10, align 8
  ret ptr %11
}

; Function Attrs: mustprogress nounwind uwtable
define noundef double @_ZNK6opencc13PhraseExtract16CalculateEntropyERKSt13unordered_mapINS_19UTF8StringSliceBaseIhEEmNS3_6HasherESt8equal_toIS3_ESaISt4pairIKS3_mEEE(ptr noundef nonnull align 8 dereferenceable(256) %0, ptr noundef nonnull align 8 dereferenceable(56) %1) #5 align 2 {
  %3 = alloca ptr, align 8
  %4 = alloca ptr, align 8
  %5 = alloca double, align 8
  %6 = alloca ptr, align 8
  %7 = alloca %"struct.std::__detail::_Node_const_iterator", align 8
  %8 = alloca %"struct.std::__detail::_Node_const_iterator", align 8
  %9 = alloca ptr, align 8
  %10 = alloca double, align 8
  %11 = alloca ptr, align 8
  %12 = alloca %"struct.std::__detail::_Node_const_iterator", align 8
  %13 = alloca %"struct.std::__detail::_Node_const_iterator", align 8
  %14 = alloca ptr, align 8
  %15 = alloca i64, align 8
  %16 = alloca double, align 8
  store ptr %0, ptr %3, align 8
  store ptr %1, ptr %4, align 8
  store double 0.000000e+00, ptr %5, align 8
  %17 = load ptr, ptr %4, align 8
  store ptr %17, ptr %6, align 8
  %18 = load ptr, ptr %6, align 8
  %19 = call ptr @_ZNKSt13unordered_mapIN6opencc19UTF8StringSliceBaseIhEEmNS2_6HasherESt8equal_toIS2_ESaISt4pairIKS2_mEEE5beginEv(ptr noundef nonnull align 8 dereferenceable(56) %18) #3
  %20 = getelementptr inbounds %"struct.std::__detail::_Node_const_iterator", ptr %7, i32 0, i32 0
  %21 = getelementptr inbounds %"struct.std::__detail::_Node_iterator_base", ptr %20, i32 0, i32 0
  store ptr %19, ptr %21, align 8
  %22 = load ptr, ptr %6, align 8
  %23 = call ptr @_ZNKSt13unordered_mapIN6opencc19UTF8StringSliceBaseIhEEmNS2_6HasherESt8equal_toIS2_ESaISt4pairIKS2_mEEE3endEv(ptr noundef nonnull align 8 dereferenceable(56) %22) #3
  %24 = getelementptr inbounds %"struct.std::__detail::_Node_const_iterator", ptr %8, i32 0, i32 0
  %25 = getelementptr inbounds %"struct.std::__detail::_Node_iterator_base", ptr %24, i32 0, i32 0
  store ptr %23, ptr %25, align 8
  br label %26

26:                                               ; preds = %36, %2
  %27 = call noundef zeroext i1 @_ZNSt8__detailneERKNS_19_Node_iterator_baseISt4pairIKN6opencc19UTF8StringSliceBaseIhEEmELb1EEES9_(ptr noundef nonnull align 8 dereferenceable(8) %7, ptr noundef nonnull align 8 dereferenceable(8) %8) #3
  br i1 %27, label %28, label %38

28:                                               ; preds = %26
  %29 = call noundef nonnull align 8 dereferenceable(24) ptr @_ZNKSt8__detail20_Node_const_iteratorISt4pairIKN6opencc19UTF8StringSliceBaseIhEEmELb0ELb1EEdeEv(ptr noundef nonnull align 8 dereferenceable(8) %7) #3
  store ptr %29, ptr %9, align 8
  %30 = load ptr, ptr %9, align 8
  %31 = getelementptr inbounds %"struct.std::pair.42", ptr %30, i32 0, i32 1
  %32 = load i64, ptr %31, align 8
  %33 = uitofp i64 %32 to double
  %34 = load double, ptr %5, align 8
  %35 = fadd double %34, %33
  store double %35, ptr %5, align 8
  br label %36

36:                                               ; preds = %28
  %37 = call noundef nonnull align 8 dereferenceable(8) ptr @_ZNSt8__detail20_Node_const_iteratorISt4pairIKN6opencc19UTF8StringSliceBaseIhEEmELb0ELb1EEppEv(ptr noundef nonnull align 8 dereferenceable(8) %7) #3
  br label %26

38:                                               ; preds = %26
  store double 0.000000e+00, ptr %10, align 8
  %39 = load ptr, ptr %4, align 8
  store ptr %39, ptr %11, align 8
  %40 = load ptr, ptr %11, align 8
  %41 = call ptr @_ZNKSt13unordered_mapIN6opencc19UTF8StringSliceBaseIhEEmNS2_6HasherESt8equal_toIS2_ESaISt4pairIKS2_mEEE5beginEv(ptr noundef nonnull align 8 dereferenceable(56) %40) #3
  %42 = getelementptr inbounds %"struct.std::__detail::_Node_const_iterator", ptr %12, i32 0, i32 0
  %43 = getelementptr inbounds %"struct.std::__detail::_Node_iterator_base", ptr %42, i32 0, i32 0
  store ptr %41, ptr %43, align 8
  %44 = load ptr, ptr %11, align 8
  %45 = call ptr @_ZNKSt13unordered_mapIN6opencc19UTF8StringSliceBaseIhEEmNS2_6HasherESt8equal_toIS2_ESaISt4pairIKS2_mEEE3endEv(ptr noundef nonnull align 8 dereferenceable(56) %44) #3
  %46 = getelementptr inbounds %"struct.std::__detail::_Node_const_iterator", ptr %13, i32 0, i32 0
  %47 = getelementptr inbounds %"struct.std::__detail::_Node_iterator_base", ptr %46, i32 0, i32 0
  store ptr %45, ptr %47, align 8
  br label %48

48:                                               ; preds = %64, %38
  %49 = call noundef zeroext i1 @_ZNSt8__detailneERKNS_19_Node_iterator_baseISt4pairIKN6opencc19UTF8StringSliceBaseIhEEmELb1EEES9_(ptr noundef nonnull align 8 dereferenceable(8) %12, ptr noundef nonnull align 8 dereferenceable(8) %13) #3
  br i1 %49, label %50, label %66

50:                                               ; preds = %48
  %51 = call noundef nonnull align 8 dereferenceable(24) ptr @_ZNKSt8__detail20_Node_const_iteratorISt4pairIKN6opencc19UTF8StringSliceBaseIhEEmELb0ELb1EEdeEv(ptr noundef nonnull align 8 dereferenceable(8) %12) #3
  store ptr %51, ptr %14, align 8
  %52 = load ptr, ptr %14, align 8
  %53 = getelementptr inbounds %"struct.std::pair.42", ptr %52, i32 0, i32 1
  %54 = load i64, ptr %53, align 8
  store i64 %54, ptr %15, align 8
  %55 = load i64, ptr %15, align 8
  %56 = uitofp i64 %55 to double
  %57 = load double, ptr %5, align 8
  %58 = fdiv double %56, %57
  store double %58, ptr %16, align 8
  %59 = load double, ptr %16, align 8
  %60 = load double, ptr %16, align 8
  %61 = call double @log(double noundef %60) #3
  %62 = load double, ptr %10, align 8
  %63 = call double @llvm.fmuladd.f64(double %59, double %61, double %62)
  store double %63, ptr %10, align 8
  br label %64

64:                                               ; preds = %50
  %65 = call noundef nonnull align 8 dereferenceable(8) ptr @_ZNSt8__detail20_Node_const_iteratorISt4pairIKN6opencc19UTF8StringSliceBaseIhEEmELb0ELb1EEppEv(ptr noundef nonnull align 8 dereferenceable(8) %12) #3
  br label %48

66:                                               ; preds = %48
  %67 = load double, ptr %10, align 8
  %68 = fcmp une double %67, 0.000000e+00
  br i1 %68, label %69, label %72

69:                                               ; preds = %66
  %70 = load double, ptr %10, align 8
  %71 = fneg double %70
  store double %71, ptr %10, align 8
  br label %72

72:                                               ; preds = %69, %66
  %73 = load double, ptr %10, align 8
  ret double %73
}