; Function Attrs: mustprogress nofree nounwind memory(readwrite, inaccessiblemem: write) uwtable
define noundef double @_ZNK6opencc13PhraseExtract16CalculateEntropyERKSt13unordered_mapINS_19UTF8StringSliceBaseIhEEmNS3_6HasherESt8equal_toIS3_ESaISt4pairIKS3_mEEE(ptr nocapture noundef nonnull readnone align 8 dereferenceable(256) %0, ptr nocapture noundef nonnull readonly align 8 dereferenceable(56) %1) local_unnamed_addr #11 align 2 {
  %3 = getelementptr inbounds i8, ptr %1, i64 16
  %4 = load ptr, ptr %3, align 8
  %.not25 = icmp eq ptr %4, null
  br i1 %.not25, label %._crit_edge, label %.lr.ph

.preheader:                                       ; preds = %.lr.ph
  br i1 %.not25, label %._crit_edge, label %.lr.ph31

.lr.ph:                                           ; preds = %2, %.lr.ph
  %.027 = phi double [ %8, %.lr.ph ], [ 0.000000e+00, %2 ]
  %.sroa.021.026 = phi ptr [ %9, %.lr.ph ], [ %4, %2 ]
  %5 = getelementptr inbounds i8, ptr %.sroa.021.026, i64 24
  %6 = load i64, ptr %5, align 8
  %7 = uitofp i64 %6 to double
  %8 = fadd double %.027, %7
  %9 = load ptr, ptr %.sroa.021.026, align 8
  %.not = icmp eq ptr %9, null
  br i1 %.not, label %.preheader, label %.lr.ph

.lr.ph31:                                         ; preds = %.preheader, %.lr.ph31
  %.01630 = phi double [ %15, %.lr.ph31 ], [ 0.000000e+00, %.preheader ]
  %.sroa.017.029 = phi ptr [ %16, %.lr.ph31 ], [ %4, %.preheader ]
  %10 = getelementptr inbounds i8, ptr %.sroa.017.029, i64 24
  %11 = load i64, ptr %10, align 8
  %12 = uitofp i64 %11 to double
  %13 = fdiv double %12, %8
  %14 = tail call double @log(double noundef %13) #22
  %15 = tail call double @llvm.fmuladd.f64(double %13, double %14, double %.01630)
  %16 = load ptr, ptr %.sroa.017.029, align 8
  %.not24 = icmp eq ptr %16, null
  br i1 %.not24, label %._crit_edge, label %.lr.ph31

._crit_edge:                                      ; preds = %.lr.ph31, %2, %.preheader
  %.016.lcssa = phi double [ 0.000000e+00, %.preheader ], [ 0.000000e+00, %2 ], [ %15, %.lr.ph31 ]
  %17 = fcmp une double %.016.lcssa, 0.000000e+00
  %18 = fneg double %.016.lcssa
  %.1 = select i1 %17, double %18, double %.016.lcssa
  ret double %.1
}